; Function Attrs: mustprogress nofree norecurse nosync nounwind willreturn memory(argmem: read) uwtable
define hidden i64 @sk_num(ptr noundef readonly captures(address_is_null) %0) local_unnamed_addr #3 {
  %2 = icmp eq ptr %0, null
  br i1 %2, label %5, label %3

3:                                                ; preds = %1
  %4 = load i64, ptr %0, align 8, !tbaa !14
  br label %5

5:                                                ; preds = %1, %3
  %.0 = phi i64 [ %4, %3 ], [ 0, %1 ]
  ret i64 %.0
}